target datalayout = "e-m:e-p270:32:32-p271:32:32-p272:64:64-i64:64-i128:128-f80:128-n8:16:32:64-S128"
target triple = "x86_64-pc-linux-gnu"

@IsUnderPostmaster = external global i8, align 1
@CurrentMemoryContext = external global ptr, align 8
@.str.8 = private unnamed_addr constant [23 x i8] c"config file processing\00", align 1

; Function Attrs: inlinehint nounwind uwtable
define internal ptr @MemoryContextSwitchTo(ptr noundef %0) #10 {
  %2 = alloca ptr, align 8
  %3 = alloca ptr, align 8
  store ptr %0, ptr %2, align 8
  call void @llvm.lifetime.start.p0(i64 8, ptr %3) #15
  %4 = load ptr, ptr @CurrentMemoryContext, align 8
  store ptr %4, ptr %3, align 8
  %5 = load ptr, ptr %2, align 8
  store ptr %5, ptr @CurrentMemoryContext, align 8
  %6 = load ptr, ptr %3, align 8
  call void @llvm.lifetime.end.p0(i64 8, ptr %3) #15
  ret ptr %6
}

; Function Attrs: nounwind uwtable
define dso_local void @ProcessConfigFile(i32 noundef %0) #0 {
  %2 = alloca i32, align 4
  %3 = alloca i32, align 4
  %4 = alloca ptr, align 8
  %5 = alloca ptr, align 8
  %6 = alloca i32, align 4
  store i32 %0, ptr %2, align 4
  call void @llvm.lifetime.start.p0(i64 4, ptr %3) #15
  call void @llvm.lifetime.start.p0(i64 8, ptr %4) #15
  call void @llvm.lifetime.start.p0(i64 8, ptr %5) #15
  %7 = load i8, ptr @IsUnderPostmaster, align 1, !range !16, !noundef !17
  %8 = trunc i8 %7 to i1
  %9 = select i1 %8, i32 13, i32 15
  store i32 %9, ptr %3, align 4
  br label %10

10:                                               ; preds = %1
  br label %11

11:                                               ; preds = %10
  br label %12

12:                                               ; preds = %11
  store i32 1, ptr %6, align 4
  %13 = load ptr, ptr @CurrentMemoryContext, align 8
  %14 = call ptr @AllocSetContextCreateInternal(ptr noundef %13, ptr noundef @.str.8, i64 noundef 0, i64 noundef 8192, i64 noundef 8388608)
  store ptr %14, ptr %4, align 8
  %15 = load ptr, ptr %4, align 8
  %16 = call ptr @MemoryContextSwitchTo(ptr noundef %15)
  store ptr %16, ptr %5, align 8
  %17 = load i32, ptr %2, align 4
  %18 = load i32, ptr %3, align 4
  %19 = call ptr @ProcessConfigFileInternal(i32 noundef %17, i1 noundef zeroext true, i32 noundef %18)
  %20 = load ptr, ptr %5, align 8
  %21 = call ptr @MemoryContextSwitchTo(ptr noundef %20)
  %22 = load ptr, ptr %4, align 8
  call void @MemoryContextDelete(ptr noundef %22)
  call void @llvm.lifetime.end.p0(i64 8, ptr %5) #15
  call void @llvm.lifetime.end.p0(i64 8, ptr %4) #15
  call void @llvm.lifetime.end.p0(i64 4, ptr %3) #15
  ret void
}