; Function Attrs: nounwind uwtable
define dso_local void @ProcessConfigFile(i32 noundef %0) local_unnamed_addr #0 {
  %2 = load i8, ptr @IsUnderPostmaster, align 1, !range !15, !noundef !16
  %3 = trunc nuw i8 %2 to i1
  %4 = select i1 %3, i32 13, i32 15
  %5 = load ptr, ptr @CurrentMemoryContext, align 8
  %6 = tail call ptr @AllocSetContextCreateInternal(ptr noundef %5, ptr noundef nonnull @.str.8, i64 noundef 0, i64 noundef 8192, i64 noundef 8388608) #28
  %7 = load ptr, ptr @CurrentMemoryContext, align 8
  store ptr %6, ptr @CurrentMemoryContext, align 8
  %8 = tail call ptr @ProcessConfigFileInternal(i32 noundef %0, i1 noundef zeroext true, i32 noundef %4) #28
  store ptr %7, ptr @CurrentMemoryContext, align 8
  tail call void @MemoryContextDelete(ptr noundef %6) #28
  ret void
}